; Function Attrs: mustprogress nofree norecurse nosync nounwind willreturn memory(argmem: read) uwtable
define noundef zeroext i1 @_ZN5arrow7compute14EncoderInteger9IsBooleanERKNS0_17KeyColumnMetadataE(ptr noundef nonnull readonly align 4 captures(none) dereferenceable(8) %metadata) local_unnamed_addr #5 align 2 {
entry:
  %0 = load i8, ptr %metadata, align 4
  %tobool = trunc i8 %0 to i1
  %fixed_length = getelementptr inbounds nuw i8, ptr %metadata, i64 4
  %1 = load i32, ptr %fixed_length, align 4
  %cmp = icmp eq i32 %1, 0
  %or.cond = select i1 %tobool, i1 %cmp, i1 false
  %is_null_type = getelementptr inbounds nuw i8, ptr %metadata, i64 1
  %2 = load i8, ptr %is_null_type, align 1
  %tobool1 = trunc i8 %2 to i1
  %lnot = xor i1 %tobool1, true
  %3 = select i1 %or.cond, i1 %lnot, i1 false
  ret i1 %3
}